target datalayout = "e-m:e-p270:32:32-p271:32:32-p272:64:64-i64:64-i128:128-f80:128-n8:16:32:64-S128"
target triple = "x86_64-pc-linux-gnu"

%class.EnumRange = type { i32, i32 }
%class.WeakProcessorTimes = type { i32, i32, double, [10 x ptr] }
%class.WorkerDataArray = type { ptr, i32, ptr, ptr, i8, [9 x ptr] }
%class.WorkerDataArray.2 = type { ptr, i32, ptr, ptr, i8, [9 x ptr] }

; Function Attrs: mustprogress nounwind uwtable
define linkonce_odr hidden noundef i32 @_ZN20PrimitiveConversions4castIjjTnNSt9enable_ifIXcvbeqstT_stT0_EiE4typeELi0ETnNS1_IXcvbsr3std11is_integralIS2_EE5valueEiE4typeELi0ETnNS1_IXcvbsr3std11is_integralIS3_EE5valueEiE4typeELi0EEES2_S3_(i32 noundef %0) #1 comdat align 2 {
  %2 = alloca i32, align 4
  store i32 %0, ptr %2, align 4
  %3 = load i32, ptr %2, align 4
  ret i32 %3
}

; Function Attrs: mustprogress nounwind uwtable
define linkonce_odr hidden noundef i32 @_ZN20PrimitiveConversions4castIN13OopStorageSet6WeakIdEjTnNSt9enable_ifIXcvbcl10check_castIT_T0_EEEiE4typeELi0ETnNS3_IXcvbsr3std7is_enumIS4_EE5valueEiE4typeELi0EEES4_S5_(i32 noundef %0) #1 comdat align 2 {
  %2 = alloca i32, align 4
  store i32 %0, ptr %2, align 4
  %3 = load i32, ptr %2, align 4
  %4 = call noundef i32 @_ZN20PrimitiveConversions4castIjjTnNSt9enable_ifIXcvbeqstT_stT0_EiE4typeELi0ETnNS1_IXcvbsr3std11is_integralIS2_EE5valueEiE4typeELi0ETnNS1_IXcvbsr3std11is_integralIS3_EE5valueEiE4typeELi0EEES2_S3_(i32 noundef %3)
  ret i32 %4
}

; Function Attrs: mustprogress nounwind uwtable
define linkonce_odr hidden void @_ZNK9EnumRangeIN13OopStorageSet6WeakIdEE16assert_not_emptyEv(ptr noundef nonnull align 4 dereferenceable(8) %0) #1 comdat align 2 {
  %2 = alloca ptr, align 8
  store ptr %0, ptr %2, align 8
  ret void
}

; Function Attrs: mustprogress nounwind uwtable
define linkonce_odr hidden void @_ZN9EnumRangeIN13OopStorageSet6WeakIdEEC2ES1_S1_(ptr noundef nonnull align 4 dereferenceable(8) %0, i32 noundef %1, i32 noundef %2) unnamed_addr #1 comdat align 2 {
  %4 = alloca ptr, align 8
  %5 = alloca i32, align 4
  %6 = alloca i32, align 4
  store ptr %0, ptr %4, align 8
  store i32 %1, ptr %5, align 4
  store i32 %2, ptr %6, align 4
  %7 = load ptr, ptr %4, align 8
  %8 = getelementptr inbounds %class.EnumRange, ptr %7, i32 0, i32 0
  %9 = load i32, ptr %5, align 4
  %10 = call noundef i32 @_ZN19EnumIterationTraitsIN13OopStorageSet6WeakIdEE16underlying_valueES1_(i32 noundef %9)
  store i32 %10, ptr %8, align 4
  %11 = getelementptr inbounds %class.EnumRange, ptr %7, i32 0, i32 1
  %12 = load i32, ptr %6, align 4
  %13 = call noundef i32 @_ZN19EnumIterationTraitsIN13OopStorageSet6WeakIdEE16underlying_valueES1_(i32 noundef %12)
  store i32 %13, ptr %11, align 4
  %14 = load i32, ptr %5, align 4
  %15 = call noundef i32 @_ZN20PrimitiveConversions4castIN13OopStorageSet6WeakIdEjTnNSt9enable_ifIXcvbcl10check_castIT_T0_EEEiE4typeELi0ETnNS3_IXcvbsr3std7is_enumIS4_EE5valueEiE4typeELi0EEES4_S5_(i32 noundef 5)
  %16 = call noundef i32 @_ZN20PrimitiveConversions4castIN13OopStorageSet6WeakIdEjTnNSt9enable_ifIXcvbcl10check_castIT_T0_EEEiE4typeELi0ETnNS3_IXcvbsr3std7is_enumIS4_EE5valueEiE4typeELi0EEES4_S5_(i32 noundef 15)
  call void @_ZN19EnumIterationTraitsIN13OopStorageSet6WeakIdEE15assert_in_rangeIS1_EEvT_S4_S4_(i32 noundef %14, i32 noundef %15, i32 noundef %16)
  %17 = load i32, ptr %6, align 4
  %18 = call noundef i32 @_ZN20PrimitiveConversions4castIN13OopStorageSet6WeakIdEjTnNSt9enable_ifIXcvbcl10check_castIT_T0_EEEiE4typeELi0ETnNS3_IXcvbsr3std7is_enumIS4_EE5valueEiE4typeELi0EEES4_S5_(i32 noundef 5)
  %19 = call noundef i32 @_ZN20PrimitiveConversions4castIN13OopStorageSet6WeakIdEjTnNSt9enable_ifIXcvbcl10check_castIT_T0_EEEiE4typeELi0ETnNS3_IXcvbsr3std7is_enumIS4_EE5valueEiE4typeELi0EEES4_S5_(i32 noundef 15)
  call void @_ZN19EnumIterationTraitsIN13OopStorageSet6WeakIdEE15assert_in_rangeIS1_EEvT_S4_S4_(i32 noundef %17, i32 noundef %18, i32 noundef %19)
  ret void
}

; Function Attrs: mustprogress nounwind uwtable
define linkonce_odr hidden noundef i32 @_ZN19EnumIterationTraitsIN13OopStorageSet6WeakIdEE16underlying_valueES1_(i32 noundef %0) #1 comdat align 2 {
  %2 = alloca i32, align 4
  store i32 %0, ptr %2, align 4
  %3 = load i32, ptr %2, align 4
  ret i32 %3
}

; Function Attrs: mustprogress nounwind uwtable
define linkonce_odr hidden void @_ZN19EnumIterationTraitsIN13OopStorageSet6WeakIdEE15assert_in_rangeIS1_EEvT_S4_S4_(i32 noundef %0, i32 noundef %1, i32 noundef %2) #1 comdat align 2 {
  %4 = alloca i32, align 4
  %5 = alloca i32, align 4
  %6 = alloca i32, align 4
  store i32 %0, ptr %4, align 4
  store i32 %1, ptr %5, align 4
  store i32 %2, ptr %6, align 4
  ret void
}

; Function Attrs: mustprogress nounwind uwtable
define linkonce_odr hidden noundef i32 @_ZNK9EnumRangeIN13OopStorageSet6WeakIdEE4lastEv(ptr noundef nonnull align 4 dereferenceable(8) %0) #1 comdat align 2 {
  %2 = alloca ptr, align 8
  store ptr %0, ptr %2, align 8
  %3 = load ptr, ptr %2, align 8
  call void @_ZNK9EnumRangeIN13OopStorageSet6WeakIdEE16assert_not_emptyEv(ptr noundef nonnull align 4 dereferenceable(8) %3)
  %4 = getelementptr inbounds %class.EnumRange, ptr %3, i32 0, i32 1
  %5 = load i32, ptr %4, align 4
  %6 = sub i32 %5, 1
  %7 = call noundef i32 @_ZN19EnumIterationTraitsIN13OopStorageSet6WeakIdEE10enumeratorEj(i32 noundef %6)
  ret i32 %7
}

; Function Attrs: mustprogress nounwind uwtable
define linkonce_odr hidden noundef i32 @_ZNK9EnumRangeIN13OopStorageSet6WeakIdEE5firstEv(ptr noundef nonnull align 4 dereferenceable(8) %0) #1 comdat align 2 {
  %2 = alloca ptr, align 8
  store ptr %0, ptr %2, align 8
  %3 = load ptr, ptr %2, align 8
  call void @_ZNK9EnumRangeIN13OopStorageSet6WeakIdEE16assert_not_emptyEv(ptr noundef nonnull align 4 dereferenceable(8) %3)
  %4 = getelementptr inbounds %class.EnumRange, ptr %3, i32 0, i32 0
  %5 = load i32, ptr %4, align 4
  %6 = call noundef i32 @_ZN19EnumIterationTraitsIN13OopStorageSet6WeakIdEE10enumeratorEj(i32 noundef %5)
  ret i32 %6
}

; Function Attrs: mustprogress nounwind uwtable
define linkonce_odr hidden void @_ZN9EnumRangeIN13OopStorageSet6WeakIdEEC2ES1_(ptr noundef nonnull align 4 dereferenceable(8) %0, i32 noundef %1) unnamed_addr #1 comdat align 2 {
  %3 = alloca ptr, align 8
  %4 = alloca i32, align 4
  store ptr %0, ptr %3, align 8
  store i32 %1, ptr %4, align 4
  %5 = load ptr, ptr %3, align 8
  %6 = load i32, ptr %4, align 4
  %7 = call noundef i32 @_ZN19EnumIterationTraitsIN13OopStorageSet6WeakIdEE10enumeratorEj(i32 noundef 15)
  call void @_ZN9EnumRangeIN13OopStorageSet6WeakIdEEC2ES1_S1_(ptr noundef nonnull align 4 dereferenceable(8) %5, i32 noundef %6, i32 noundef %7)
  ret void
}

; Function Attrs: mustprogress nounwind uwtable
define linkonce_odr hidden noundef i32 @_ZN19EnumIterationTraitsIN13OopStorageSet6WeakIdEE10enumeratorEj(i32 noundef %0) #1 comdat align 2 {
  %2 = alloca i32, align 4
  store i32 %0, ptr %2, align 4
  %3 = load i32, ptr %2, align 4
  ret i32 %3
}

; Function Attrs: mustprogress nounwind uwtable
define linkonce_odr hidden void @_ZN15WorkerDataArrayImE3addEjm(ptr noundef nonnull align 8 dereferenceable(112) %0, i32 noundef %1, i64 noundef %2) #1 comdat align 2 {
  %4 = alloca ptr, align 8
  %5 = alloca i32, align 4
  %6 = alloca i64, align 8
  store ptr %0, ptr %4, align 8
  store i32 %1, ptr %5, align 4
  store i64 %2, ptr %6, align 8
  %7 = load ptr, ptr %4, align 8
  %8 = load i64, ptr %6, align 8
  %9 = getelementptr inbounds %class.WorkerDataArray.2, ptr %7, i32 0, i32 0
  %10 = load ptr, ptr %9, align 8
  %11 = load i32, ptr %5, align 4
  %12 = zext i32 %11 to i64
  %13 = getelementptr inbounds i64, ptr %10, i64 %12
  %14 = load i64, ptr %13, align 8
  %15 = add i64 %14, %8
  store i64 %15, ptr %13, align 8
  ret void
}

; Function Attrs: mustprogress nounwind uwtable
define linkonce_odr hidden void @_ZN15WorkerDataArrayImE3setEjm(ptr noundef nonnull align 8 dereferenceable(112) %0, i32 noundef %1, i64 noundef %2) #1 comdat align 2 {
  %4 = alloca ptr, align 8
  %5 = alloca i32, align 4
  %6 = alloca i64, align 8
  store ptr %0, ptr %4, align 8
  store i32 %1, ptr %5, align 4
  store i64 %2, ptr %6, align 8
  %7 = load ptr, ptr %4, align 8
  %8 = load i64, ptr %6, align 8
  %9 = getelementptr inbounds %class.WorkerDataArray.2, ptr %7, i32 0, i32 0
  %10 = load ptr, ptr %9, align 8
  %11 = load i32, ptr %5, align 4
  %12 = zext i32 %11 to i64
  %13 = getelementptr inbounds i64, ptr %10, i64 %12
  store i64 %8, ptr %13, align 8
  ret void
}

; Function Attrs: mustprogress nounwind uwtable
define linkonce_odr hidden noundef i64 @_ZNK15WorkerDataArrayImE3getEj(ptr noundef nonnull align 8 dereferenceable(112) %0, i32 noundef %1) #1 comdat align 2 {
  %3 = alloca ptr, align 8
  %4 = alloca i32, align 4
  store ptr %0, ptr %3, align 8
  store i32 %1, ptr %4, align 4
  %5 = load ptr, ptr %3, align 8
  %6 = getelementptr inbounds %class.WorkerDataArray.2, ptr %5, i32 0, i32 0
  %7 = load ptr, ptr %6, align 8
  %8 = load i32, ptr %4, align 4
  %9 = zext i32 %8 to i64
  %10 = getelementptr inbounds i64, ptr %7, i64 %9
  %11 = load i64, ptr %10, align 8
  ret i64 %11
}

; Function Attrs: mustprogress nounwind uwtable
define linkonce_odr hidden noundef i64 @_ZNK9EnumRangeIN13OopStorageSet6WeakIdEE5indexES1_(ptr noundef nonnull align 4 dereferenceable(8) %0, i32 noundef %1) #1 comdat align 2 {
  %3 = alloca ptr, align 8
  %4 = alloca i32, align 4
  store ptr %0, ptr %3, align 8
  store i32 %1, ptr %4, align 4
  %5 = load ptr, ptr %3, align 8
  %6 = load i32, ptr %4, align 4
  %7 = call noundef i32 @_ZNK9EnumRangeIN13OopStorageSet6WeakIdEE5firstEv(ptr noundef nonnull align 4 dereferenceable(8) %5)
  %8 = call noundef i32 @_ZNK9EnumRangeIN13OopStorageSet6WeakIdEE4lastEv(ptr noundef nonnull align 4 dereferenceable(8) %5)
  call void @_ZN19EnumIterationTraitsIN13OopStorageSet6WeakIdEE15assert_in_rangeIS1_EEvT_S4_S4_(i32 noundef %6, i32 noundef %7, i32 noundef %8)
  %9 = load i32, ptr %4, align 4
  %10 = call noundef i32 @_ZN19EnumIterationTraitsIN13OopStorageSet6WeakIdEE16underlying_valueES1_(i32 noundef %9)
  %11 = getelementptr inbounds %class.EnumRange, ptr %5, i32 0, i32 0
  %12 = load i32, ptr %11, align 4
  %13 = sub i32 %10, %12
  %14 = zext i32 %13 to i64
  ret i64 %14
}

; Function Attrs: mustprogress nounwind uwtable
define linkonce_odr hidden void @_ZN9EnumRangeIN13OopStorageSet6WeakIdEEC2Ev(ptr noundef nonnull align 4 dereferenceable(8) %0) unnamed_addr #1 comdat align 2 {
  %2 = alloca ptr, align 8
  store ptr %0, ptr %2, align 8
  %3 = load ptr, ptr %2, align 8
  %4 = call noundef i32 @_ZN19EnumIterationTraitsIN13OopStorageSet6WeakIdEE10enumeratorEj(i32 noundef 5)
  call void @_ZN9EnumRangeIN13OopStorageSet6WeakIdEEC2ES1_(ptr noundef nonnull align 4 dereferenceable(8) %3, i32 noundef %4)
  ret void
}

; Function Attrs: mustprogress nounwind uwtable
define linkonce_odr hidden void @_ZN15WorkerDataArrayIdE27set_or_add_thread_work_itemEjmj(ptr noundef nonnull align 8 dereferenceable(112) %0, i32 noundef %1, i64 noundef %2, i32 noundef %3) #1 comdat align 2 {
  %5 = alloca ptr, align 8
  %6 = alloca i32, align 4
  %7 = alloca i64, align 8
  %8 = alloca i32, align 4
  store ptr %0, ptr %5, align 8
  store i32 %1, ptr %6, align 4
  store i64 %2, ptr %7, align 8
  store i32 %3, ptr %8, align 4
  %9 = load ptr, ptr %5, align 8
  %10 = getelementptr inbounds %class.WorkerDataArray, ptr %9, i32 0, i32 5
  %11 = load i32, ptr %8, align 4
  %12 = zext i32 %11 to i64
  %13 = getelementptr inbounds [9 x ptr], ptr %10, i64 0, i64 %12
  %14 = load ptr, ptr %13, align 8
  %15 = load i32, ptr %6, align 4
  %16 = call noundef i64 @_ZNK15WorkerDataArrayImE3getEj(ptr noundef nonnull align 8 dereferenceable(112) %14, i32 noundef %15)
  %17 = call noundef i64 @_ZN15WorkerDataArrayImE13uninitializedEv()
  %18 = icmp eq i64 %16, %17
  br i1 %18, label %19, label %27

19:                                               ; preds = %4
  %20 = getelementptr inbounds %class.WorkerDataArray, ptr %9, i32 0, i32 5
  %21 = load i32, ptr %8, align 4
  %22 = zext i32 %21 to i64
  %23 = getelementptr inbounds [9 x ptr], ptr %20, i64 0, i64 %22
  %24 = load ptr, ptr %23, align 8
  %25 = load i32, ptr %6, align 4
  %26 = load i64, ptr %7, align 8
  call void @_ZN15WorkerDataArrayImE3setEjm(ptr noundef nonnull align 8 dereferenceable(112) %24, i32 noundef %25, i64 noundef %26)
  br label %35

27:                                               ; preds = %4
  %28 = getelementptr inbounds %class.WorkerDataArray, ptr %9, i32 0, i32 5
  %29 = load i32, ptr %8, align 4
  %30 = zext i32 %29 to i64
  %31 = getelementptr inbounds [9 x ptr], ptr %28, i64 0, i64 %30
  %32 = load ptr, ptr %31, align 8
  %33 = load i32, ptr %6, align 4
  %34 = load i64, ptr %7, align 8
  call void @_ZN15WorkerDataArrayImE3addEjm(ptr noundef nonnull align 8 dereferenceable(112) %32, i32 noundef %33, i64 noundef %34)
  br label %35

35:                                               ; preds = %27, %19
  ret void
}

; Function Attrs: mustprogress nounwind uwtable
define hidden noundef ptr @_ZNK18WeakProcessorTimes11worker_dataEN13OopStorageSet6WeakIdE(ptr noundef nonnull align 8 dereferenceable(96) %0, i32 noundef %1) #1 align 2 {
  %3 = alloca ptr, align 8
  %4 = alloca i32, align 4
  %5 = alloca i64, align 8
  %6 = alloca %class.EnumRange, align 4
  store ptr %0, ptr %3, align 8
  store i32 %1, ptr %4, align 4
  %7 = load ptr, ptr %3, align 8
  call void @_ZN9EnumRangeIN13OopStorageSet6WeakIdEEC2Ev(ptr noundef nonnull align 4 dereferenceable(8) %6)
  %8 = load i32, ptr %4, align 4
  %9 = call noundef i64 @_ZNK9EnumRangeIN13OopStorageSet6WeakIdEE5indexES1_(ptr noundef nonnull align 4 dereferenceable(8) %6, i32 noundef %8)
  store i64 %9, ptr %5, align 8
  %10 = getelementptr inbounds %class.WeakProcessorTimes, ptr %7, i32 0, i32 3
  %11 = load i64, ptr %5, align 8
  %12 = getelementptr inbounds [10 x ptr], ptr %10, i64 0, i64 %11
  %13 = load ptr, ptr %12, align 8
  ret ptr %13
}

; Function Attrs: mustprogress nounwind uwtable
define hidden void @_ZN18WeakProcessorTimes19record_worker_itemsEjN13OopStorageSet6WeakIdEmm(ptr noundef nonnull align 8 dereferenceable(96) %0, i32 noundef %1, i32 noundef %2, i64 noundef %3, i64 noundef %4) #1 align 2 {
  %6 = alloca ptr, align 8
  %7 = alloca i32, align 4
  %8 = alloca i32, align 4
  %9 = alloca i64, align 8
  %10 = alloca i64, align 8
  %11 = alloca ptr, align 8
  store ptr %0, ptr %6, align 8
  store i32 %1, ptr %7, align 4
  store i32 %2, ptr %8, align 4
  store i64 %3, ptr %9, align 8
  store i64 %4, ptr %10, align 8
  %12 = load ptr, ptr %6, align 8
  %13 = load i32, ptr %8, align 4
  %14 = call noundef ptr @_ZNK18WeakProcessorTimes11worker_dataEN13OopStorageSet6WeakIdE(ptr noundef nonnull align 8 dereferenceable(96) %12, i32 noundef %13)
  store ptr %14, ptr %11, align 8
  %15 = load ptr, ptr %11, align 8
  %16 = load i32, ptr %7, align 4
  %17 = load i64, ptr %9, align 8
  call void @_ZN15WorkerDataArrayIdE27set_or_add_thread_work_itemEjmj(ptr noundef nonnull align 8 dereferenceable(112) %15, i32 noundef %16, i64 noundef %17, i32 noundef 0)
  %18 = load ptr, ptr %11, align 8
  %19 = load i32, ptr %7, align 4
  %20 = load i64, ptr %10, align 8
  call void @_ZN15WorkerDataArrayIdE27set_or_add_thread_work_itemEjmj(ptr noundef nonnull align 8 dereferenceable(112) %18, i32 noundef %19, i64 noundef %20, i32 noundef 1)
  ret void
}