; Function Attrs: mustprogress nounwind uwtable
define hidden void @_ZN18WeakProcessorTimes19record_worker_itemsEjN13OopStorageSet6WeakIdEmm(ptr nocapture noundef nonnull readonly align 8 dereferenceable(96) %0, i32 noundef %1, i32 noundef %2, i64 noundef %3, i64 noundef %4) local_unnamed_addr #0 align 2 {
  %6 = add i32 %2, -5
  %7 = zext i32 %6 to i64
  %8 = getelementptr inbounds i8, ptr %0, i64 16
  %9 = getelementptr inbounds [10 x ptr], ptr %8, i64 0, i64 %7
  %10 = load ptr, ptr %9, align 8
  %11 = getelementptr inbounds i8, ptr %10, i64 40
  %12 = load ptr, ptr %11, align 8
  %13 = load ptr, ptr %12, align 8
  %14 = zext i32 %1 to i64
  %15 = getelementptr inbounds i64, ptr %13, i64 %14
  %16 = load i64, ptr %15, align 8
  %17 = tail call noundef i64 @_ZN15WorkerDataArrayImE13uninitializedEv() #13
  %18 = icmp eq i64 %16, %17
  %19 = load ptr, ptr %11, align 8
  %20 = load ptr, ptr %19, align 8
  %21 = getelementptr inbounds i64, ptr %20, i64 %14
  br i1 %18, label %_ZN15WorkerDataArrayIdE27set_or_add_thread_work_itemEjmj.exit, label %22

22:                                               ; preds = %5
  %23 = load i64, ptr %21, align 8
  %24 = add i64 %23, %3
  br label %_ZN15WorkerDataArrayIdE27set_or_add_thread_work_itemEjmj.exit

_ZN15WorkerDataArrayIdE27set_or_add_thread_work_itemEjmj.exit: ; preds = %5, %22
  %.sink.i = phi i64 [ %24, %22 ], [ %3, %5 ]
  store i64 %.sink.i, ptr %21, align 8
  %25 = getelementptr inbounds i8, ptr %10, i64 48
  %26 = load ptr, ptr %25, align 8
  %27 = load ptr, ptr %26, align 8
  %28 = getelementptr inbounds i64, ptr %27, i64 %14
  %29 = load i64, ptr %28, align 8
  %30 = tail call noundef i64 @_ZN15WorkerDataArrayImE13uninitializedEv() #13
  %31 = icmp eq i64 %29, %30
  %32 = load ptr, ptr %25, align 8
  %33 = load ptr, ptr %32, align 8
  %34 = getelementptr inbounds i64, ptr %33, i64 %14
  br i1 %31, label %_ZN15WorkerDataArrayIdE27set_or_add_thread_work_itemEjmj.exit8, label %35

35:                                               ; preds = %_ZN15WorkerDataArrayIdE27set_or_add_thread_work_itemEjmj.exit
  %36 = load i64, ptr %34, align 8
  %37 = add i64 %36, %4
  br label %_ZN15WorkerDataArrayIdE27set_or_add_thread_work_itemEjmj.exit8

_ZN15WorkerDataArrayIdE27set_or_add_thread_work_itemEjmj.exit8: ; preds = %_ZN15WorkerDataArrayIdE27set_or_add_thread_work_itemEjmj.exit, %35
  %.sink.i7 = phi i64 [ %37, %35 ], [ %4, %_ZN15WorkerDataArrayIdE27set_or_add_thread_work_itemEjmj.exit ]
  store i64 %.sink.i7, ptr %34, align 8
  ret void
}